; Function Attrs: mustprogress nounwind willreturn uwtable
define hidden noundef range(i32 0, 2) i32 @_ZN5boost4wave8cpplexer7re2clex16aq_enqueue_frontEPNS2_16tag_aq_queuetypeEm(ptr nocapture noundef %0, i64 noundef %1) local_unnamed_addr #0 {
  %3 = getelementptr inbounds nuw i8, ptr %0, i64 16
  %4 = load i64, ptr %3, align 8, !tbaa !12
  %5 = getelementptr inbounds nuw i8, ptr %0, i64 24
  %6 = load i64, ptr %5, align 8, !tbaa !3
  %7 = icmp eq i64 %4, %6
  br i1 %7, label %8, label %._crit_edge

._crit_edge:                                      ; preds = %2
  %.pre = load i64, ptr %0, align 8, !tbaa !11
  br label %24

8:                                                ; preds = %2
  %9 = shl i64 %4, 1
  %10 = getelementptr inbounds nuw i8, ptr %0, i64 32
  %11 = load ptr, ptr %10, align 8, !tbaa !9
  %12 = shl i64 %4, 4
  %13 = tail call ptr @realloc(ptr noundef %11, i64 noundef %12) #8
  %.not.i = icmp eq ptr %13, null
  br i1 %.not.i, label %_ZN5boost4wave8cpplexer7re2clex7aq_growEPNS2_16tag_aq_queuetypeE.exit.thread, label %14

14:                                               ; preds = %8
  store ptr %13, ptr %10, align 8, !tbaa !9
  %15 = getelementptr inbounds nuw i8, ptr %0, i64 8
  %16 = load i64, ptr %15, align 8, !tbaa !10
  %17 = load i64, ptr %0, align 8, !tbaa !11
  %.not18.i = icmp ugt i64 %16, %17
  br i1 %.not18.i, label %_ZN5boost4wave8cpplexer7re2clex7aq_growEPNS2_16tag_aq_queuetypeE.exit, label %18

18:                                               ; preds = %14
  %19 = load i64, ptr %5, align 8, !tbaa !3
  %20 = getelementptr inbounds nuw i64, ptr %13, i64 %19
  %21 = shl i64 %16, 3
  %22 = add i64 %21, 8
  tail call void @llvm.memcpy.p0.p0.i64(ptr nonnull align 8 %20, ptr nonnull align 8 %13, i64 %22, i1 false)
  %23 = add i64 %19, %16
  store i64 %23, ptr %15, align 8, !tbaa !10
  br label %_ZN5boost4wave8cpplexer7re2clex7aq_growEPNS2_16tag_aq_queuetypeE.exit

_ZN5boost4wave8cpplexer7re2clex7aq_growEPNS2_16tag_aq_queuetypeE.exit: ; preds = %14, %18
  store i64 %9, ptr %5, align 8, !tbaa !3
  br label %24

24:                                               ; preds = %._crit_edge, %_ZN5boost4wave8cpplexer7re2clex7aq_growEPNS2_16tag_aq_queuetypeE.exit
  %25 = phi i64 [ %6, %._crit_edge ], [ %9, %_ZN5boost4wave8cpplexer7re2clex7aq_growEPNS2_16tag_aq_queuetypeE.exit ]
  %26 = phi i64 [ %.pre, %._crit_edge ], [ %17, %_ZN5boost4wave8cpplexer7re2clex7aq_growEPNS2_16tag_aq_queuetypeE.exit ]
  %27 = icmp eq i64 %26, 0
  %spec.select = select i1 %27, i64 %25, i64 %26
  %storemerge = add i64 %spec.select, -1
  store i64 %storemerge, ptr %0, align 8, !tbaa !11
  %28 = getelementptr inbounds nuw i8, ptr %0, i64 32
  %29 = load ptr, ptr %28, align 8, !tbaa !9
  %30 = getelementptr inbounds nuw i64, ptr %29, i64 %storemerge
  store i64 %1, ptr %30, align 8, !tbaa !13
  %31 = load i64, ptr %3, align 8, !tbaa !12
  %32 = add i64 %31, 1
  store i64 %32, ptr %3, align 8, !tbaa !12
  br label %_ZN5boost4wave8cpplexer7re2clex7aq_growEPNS2_16tag_aq_queuetypeE.exit.thread

_ZN5boost4wave8cpplexer7re2clex7aq_growEPNS2_16tag_aq_queuetypeE.exit.thread: ; preds = %8, %24
  %.0 = phi i32 [ 1, %24 ], [ 0, %8 ]
  ret i32 %.0
}